target datalayout = "e-m:e-p270:32:32-p271:32:32-p272:64:64-i64:64-i128:128-f80:128-n8:16:32:64-S128"
target triple = "x86_64-pc-linux-gnu"

%struct.ShellState = type { ptr, i8, i8, i8, i8, i8, i8, i8, i8, i8, i8, i8, i8, i8, %struct.ColModeOpts, i32, i32, i32, i32, i32, i32, i32, ptr, ptr, ptr, i32, i32, i32, i32, i32, i32, i32, i32, i32, i32, i32, i32, i32, i64, ptr, ptr, [30 x i8], [20 x i8], [20 x i8], [20 x i8], [20 x i8], ptr, ptr, i32, [20 x i8], [4096 x i8], ptr, ptr, [5 x %struct.AuxDb], ptr, ptr, i32, i32, ptr, %struct.EQPGraph, %struct.ExpertInfo }
%struct.ColModeOpts = type { i32, i8, i8 }
%struct.AuxDb = type { ptr, ptr, ptr }
%struct.EQPGraph = type { ptr, ptr, [100 x i8] }
%struct.ExpertInfo = type { ptr, i32 }

@.str.1357 = private unnamed_addr constant [35 x i8] c"/****** CORRUPTION ERROR *******/\0A\00", align 1
@.str.1358 = private unnamed_addr constant [20 x i8] c"/****** %s ******/\0A\00", align 1
@.str.1359 = private unnamed_addr constant [23 x i8] c"%s ORDER BY rowid DESC\00", align 1
@.str.1360 = private unnamed_addr constant [27 x i8] c"/****** ERROR: %s ******/\0A\00", align 1

; Function Attrs: nounwind uwtable
define internal i32 @strlen30(ptr noundef %0) #0 {
  %2 = alloca ptr, align 8
  %3 = alloca ptr, align 8
  store ptr %0, ptr %2, align 8, !tbaa !36
  call void @llvm.lifetime.start.p0(i64 8, ptr %3) #14
  %4 = load ptr, ptr %2, align 8, !tbaa !36
  store ptr %4, ptr %3, align 8, !tbaa !36
  br label %5

5:                                                ; preds = %9, %1
  %6 = load ptr, ptr %3, align 8, !tbaa !36
  %7 = load i8, ptr %6, align 1, !tbaa !40
  %8 = icmp ne i8 %7, 0
  br i1 %8, label %9, label %12

9:                                                ; preds = %5
  %10 = load ptr, ptr %3, align 8, !tbaa !36
  %11 = getelementptr inbounds nuw i8, ptr %10, i32 1
  store ptr %11, ptr %3, align 8, !tbaa !36
  br label %5, !llvm.loop !533

12:                                               ; preds = %5
  %13 = load ptr, ptr %3, align 8, !tbaa !36
  %14 = load ptr, ptr %2, align 8, !tbaa !36
  %15 = ptrtoint ptr %13 to i64
  %16 = ptrtoint ptr %14 to i64
  %17 = sub i64 %15, %16
  %18 = trunc i64 %17 to i32
  %19 = and i32 1073741823, %18
  call void @llvm.lifetime.end.p0(i64 8, ptr %3) #14
  ret i32 %19
}

; Function Attrs: nounwind uwtable
define internal i32 @run_schema_dump_query(ptr noundef %0, ptr noundef %1) #0 {
  %3 = alloca i32, align 4
  %4 = alloca ptr, align 8
  %5 = alloca ptr, align 8
  %6 = alloca i32, align 4
  %7 = alloca ptr, align 8
  %8 = alloca ptr, align 8
  %9 = alloca i32, align 4
  %10 = alloca i32, align 4
  store ptr %0, ptr %4, align 8, !tbaa !373
  store ptr %1, ptr %5, align 8, !tbaa !36
  call void @llvm.lifetime.start.p0(i64 4, ptr %6) #14
  call void @llvm.lifetime.start.p0(i64 8, ptr %7) #14
  store ptr null, ptr %7, align 8, !tbaa !36
  %11 = load ptr, ptr %4, align 8, !tbaa !373
  %12 = getelementptr inbounds nuw %struct.ShellState, ptr %11, i32 0, i32 0
  %13 = load ptr, ptr %12, align 8, !tbaa !367
  %14 = load ptr, ptr %5, align 8, !tbaa !36
  %15 = load ptr, ptr %4, align 8, !tbaa !373
  %16 = call i32 @sqlite3_exec(ptr noundef %13, ptr noundef %14, ptr noundef @dump_callback, ptr noundef %15, ptr noundef %7)
  store i32 %16, ptr %6, align 4, !tbaa !3
  %17 = load i32, ptr %6, align 4, !tbaa !3
  %18 = icmp eq i32 %17, 11
  br i1 %18, label %19, label %70

19:                                               ; preds = %2
  call void @llvm.lifetime.start.p0(i64 8, ptr %8) #14
  call void @llvm.lifetime.start.p0(i64 4, ptr %9) #14
  %20 = load ptr, ptr %5, align 8, !tbaa !36
  %21 = call i32 @strlen30(ptr noundef %20)
  store i32 %21, ptr %9, align 4, !tbaa !3
  %22 = load ptr, ptr %4, align 8, !tbaa !373
  %23 = getelementptr inbounds nuw %struct.ShellState, ptr %22, i32 0, i32 23
  %24 = load ptr, ptr %23, align 8, !tbaa !354
  %25 = call i32 @fputs(ptr noundef @.str.1357, ptr noundef %24)
  %26 = load ptr, ptr %7, align 8, !tbaa !36
  %27 = icmp ne ptr %26, null
  br i1 %27, label %28, label %35

28:                                               ; preds = %19
  %29 = load ptr, ptr %4, align 8, !tbaa !373
  %30 = getelementptr inbounds nuw %struct.ShellState, ptr %29, i32 0, i32 23
  %31 = load ptr, ptr %30, align 8, !tbaa !354
  %32 = load ptr, ptr %7, align 8, !tbaa !36
  %33 = call i32 (ptr, ptr, ...) @fprintf(ptr noundef %31, ptr noundef @.str.1358, ptr noundef %32) #14
  %34 = load ptr, ptr %7, align 8, !tbaa !36
  call void @sqlite3_free(ptr noundef %34)
  store ptr null, ptr %7, align 8, !tbaa !36
  br label %35

35:                                               ; preds = %28, %19
  %36 = load i32, ptr %9, align 4, !tbaa !3
  %37 = add nsw i32 %36, 100
  %38 = sext i32 %37 to i64
  %39 = call noalias ptr @malloc(i64 noundef %38) #19
  store ptr %39, ptr %8, align 8, !tbaa !36
  %40 = load ptr, ptr %8, align 8, !tbaa !36
  %41 = icmp eq ptr %40, null
  br i1 %41, label %42, label %44

42:                                               ; preds = %35
  %43 = load i32, ptr %6, align 4, !tbaa !3
  store i32 %43, ptr %3, align 4
  store i32 1, ptr %10, align 4
  br label %67

44:                                               ; preds = %35
  %45 = load i32, ptr %9, align 4, !tbaa !3
  %46 = add nsw i32 %45, 100
  %47 = load ptr, ptr %8, align 8, !tbaa !36
  %48 = load ptr, ptr %5, align 8, !tbaa !36
  %49 = call ptr (i32, ptr, ptr, ...) @sqlite3_snprintf(i32 noundef %46, ptr noundef %47, ptr noundef @.str.1359, ptr noundef %48)
  %50 = load ptr, ptr %4, align 8, !tbaa !373
  %51 = getelementptr inbounds nuw %struct.ShellState, ptr %50, i32 0, i32 0
  %52 = load ptr, ptr %51, align 8, !tbaa !367
  %53 = load ptr, ptr %8, align 8, !tbaa !36
  %54 = load ptr, ptr %4, align 8, !tbaa !373
  %55 = call i32 @sqlite3_exec(ptr noundef %52, ptr noundef %53, ptr noundef @dump_callback, ptr noundef %54, ptr noundef %7)
  store i32 %55, ptr %6, align 4, !tbaa !3
  %56 = load i32, ptr %6, align 4, !tbaa !3
  %57 = icmp ne i32 %56, 0
  br i1 %57, label %58, label %64

58:                                               ; preds = %44
  %59 = load ptr, ptr %4, align 8, !tbaa !373
  %60 = getelementptr inbounds nuw %struct.ShellState, ptr %59, i32 0, i32 23
  %61 = load ptr, ptr %60, align 8, !tbaa !354
  %62 = load ptr, ptr %7, align 8, !tbaa !36
  %63 = call i32 (ptr, ptr, ...) @fprintf(ptr noundef %61, ptr noundef @.str.1360, ptr noundef %62) #14
  br label %65

64:                                               ; preds = %44
  store i32 11, ptr %6, align 4, !tbaa !3
  br label %65

65:                                               ; preds = %64, %58
  %66 = load ptr, ptr %8, align 8, !tbaa !36
  call void @free(ptr noundef %66) #14
  store i32 0, ptr %10, align 4
  br label %67

67:                                               ; preds = %65, %42
  call void @llvm.lifetime.end.p0(i64 4, ptr %9) #14
  call void @llvm.lifetime.end.p0(i64 8, ptr %8) #14
  %68 = load i32, ptr %10, align 4
  switch i32 %68, label %73 [
    i32 0, label %69
  ]

69:                                               ; preds = %67
  br label %70

70:                                               ; preds = %69, %2
  %71 = load ptr, ptr %7, align 8, !tbaa !36
  call void @sqlite3_free(ptr noundef %71)
  %72 = load i32, ptr %6, align 4, !tbaa !3
  store i32 %72, ptr %3, align 4
  store i32 1, ptr %10, align 4
  br label %73

73:                                               ; preds = %70, %67
  call void @llvm.lifetime.end.p0(i64 8, ptr %7) #14
  call void @llvm.lifetime.end.p0(i64 4, ptr %6) #14
  %74 = load i32, ptr %3, align 4
  ret i32 %74
}