; Function Attrs: nounwind uwtable
define internal fastcc void @run_schema_dump_query(ptr noundef nonnull %0, ptr noundef %1) unnamed_addr #2 {
  %3 = alloca ptr, align 8
  call void @llvm.lifetime.start.p0(i64 8, ptr nonnull %3) #43
  store ptr null, ptr %3, align 8, !tbaa !29
  %4 = load ptr, ptr %0, align 8, !tbaa !478
  %5 = call i32 @sqlite3_exec(ptr noundef %4, ptr noundef %1, ptr noundef nonnull @dump_callback, ptr noundef nonnull %0, ptr noundef nonnull %3) #43
  %6 = icmp eq i32 %5, 11
  br i1 %6, label %.preheader, label %35

.preheader:                                       ; preds = %2, %.preheader
  %.0.i = phi ptr [ %8, %.preheader ], [ %1, %2 ]
  %7 = load i8, ptr %.0.i, align 1, !tbaa !25
  %.not.i = icmp eq i8 %7, 0
  %8 = getelementptr inbounds nuw i8, ptr %.0.i, i64 1
  br i1 %.not.i, label %strlen30.exit, label %.preheader, !llvm.loop !475

strlen30.exit:                                    ; preds = %.preheader
  %9 = ptrtoint ptr %.0.i to i64
  %10 = ptrtoint ptr %1 to i64
  %11 = sub i64 %9, %10
  %12 = trunc i64 %11 to i32
  %13 = and i32 %12, 1073741823
  %14 = getelementptr inbounds nuw i8, ptr %0, i64 72
  %15 = load ptr, ptr %14, align 8, !tbaa !462
  %16 = call i64 @fwrite(ptr nonnull @.str.1357, i64 34, i64 1, ptr %15)
  %17 = load ptr, ptr %3, align 8, !tbaa !29
  %.not = icmp eq ptr %17, null
  br i1 %.not, label %22, label %18

18:                                               ; preds = %strlen30.exit
  %19 = load ptr, ptr %14, align 8, !tbaa !462
  %20 = call i32 (ptr, ptr, ...) @fprintf(ptr noundef %19, ptr noundef nonnull @.str.1358, ptr noundef nonnull %17) #43
  %21 = load ptr, ptr %3, align 8, !tbaa !29
  call void @sqlite3_free(ptr noundef %21) #43
  store ptr null, ptr %3, align 8, !tbaa !29
  br label %22

22:                                               ; preds = %18, %strlen30.exit
  %23 = add nuw nsw i32 %13, 100
  %24 = zext nneg i32 %23 to i64
  %25 = call noalias ptr @malloc(i64 noundef %24) #49
  %.not30 = icmp eq ptr %25, null
  br i1 %.not30, label %.thread, label %26

26:                                               ; preds = %22
  %27 = call ptr (i32, ptr, ptr, ...) @sqlite3_snprintf(i32 noundef %23, ptr noundef nonnull %25, ptr noundef nonnull @.str.1359, ptr noundef %1) #43
  %28 = load ptr, ptr %0, align 8, !tbaa !478
  %29 = call i32 @sqlite3_exec(ptr noundef %28, ptr noundef nonnull %25, ptr noundef nonnull @dump_callback, ptr noundef nonnull %0, ptr noundef nonnull %3) #43
  %.not29 = icmp eq i32 %29, 0
  br i1 %.not29, label %34, label %30

30:                                               ; preds = %26
  %31 = load ptr, ptr %14, align 8, !tbaa !462
  %32 = load ptr, ptr %3, align 8, !tbaa !29
  %33 = call i32 (ptr, ptr, ...) @fprintf(ptr noundef %31, ptr noundef nonnull @.str.1360, ptr noundef %32) #43
  br label %34

34:                                               ; preds = %30, %26
  call void @free(ptr noundef nonnull %25) #43
  br label %35

35:                                               ; preds = %34, %2
  %36 = load ptr, ptr %3, align 8, !tbaa !29
  call void @sqlite3_free(ptr noundef %36) #43
  br label %.thread

.thread:                                          ; preds = %22, %35
  call void @llvm.lifetime.end.p0(i64 8, ptr nonnull %3) #43
  ret void
}